; Function Attrs: mustprogress uwtable
define internal void @_ZN7rocksdb12_GLOBAL__N_123ReadaheadSequentialFile15InvalidateCacheEmm(ptr dead_on_unwind noalias writable sret(%"class.rocksdb::IOStatus") align 8 %0, ptr noundef nonnull align 8 dereferenceable(160) %1, i64 noundef %2, i64 noundef %3) unnamed_addr #0 align 2 personality ptr @__gxx_personality_v0 {
  %5 = getelementptr inbounds nuw i8, ptr %1, i64 32
  %6 = tail call noundef i32 @pthread_mutex_lock(ptr noundef nonnull align 8 dereferenceable(40) %5) #19
  %.not.i.i.i = icmp eq i32 %6, 0
  br i1 %.not.i.i.i, label %_ZNSt11unique_lockISt5mutexEC2ERS0_.exit, label %7

7:                                                ; preds = %4
  tail call void @_ZSt20__throw_system_errori(i32 noundef %6) #22
  unreachable

_ZNSt11unique_lockISt5mutexEC2ERS0_.exit:         ; preds = %4
  %8 = getelementptr inbounds nuw i8, ptr %1, i64 128
  store i64 0, ptr %8, align 8, !tbaa !133
  %9 = getelementptr inbounds nuw i8, ptr %1, i64 8
  %10 = load ptr, ptr %9, align 8, !tbaa !47
  %11 = load ptr, ptr %10, align 8, !tbaa !15
  %12 = getelementptr inbounds nuw i8, ptr %11, i64 48
  %13 = load ptr, ptr %12, align 8
  invoke void %13(ptr dead_on_unwind writable sret(%"class.rocksdb::IOStatus") align 8 %0, ptr noundef nonnull align 8 dereferenceable(8) %10, i64 noundef %2, i64 noundef %3)
          to label %_ZNSt11unique_lockISt5mutexED2Ev.exit unwind label %_ZNSt11unique_lockISt5mutexED2Ev.exit5

_ZNSt11unique_lockISt5mutexED2Ev.exit:            ; preds = %_ZNSt11unique_lockISt5mutexEC2ERS0_.exit
  %14 = tail call noundef i32 @pthread_mutex_unlock(ptr noundef nonnull align 8 dereferenceable(40) %5) #19
  ret void

_ZNSt11unique_lockISt5mutexED2Ev.exit5:           ; preds = %_ZNSt11unique_lockISt5mutexEC2ERS0_.exit
  %15 = landingpad { ptr, i32 }
          cleanup
  %16 = tail call noundef i32 @pthread_mutex_unlock(ptr noundef nonnull align 8 dereferenceable(40) %5) #19
  resume { ptr, i32 } %15
}